	.file	"test.cc"
	.text
.Ltext0:
	.section	.rodata
	.type	_ZStL19piecewise_construct, @object
	.size	_ZStL19piecewise_construct, 1
_ZStL19piecewise_construct:
	.zero	1
	.local	_ZStL8__ioinit
	.comm	_ZStL8__ioinit,1,1
.LC0:
	.string	"%s%s.bin"
	.section	.text._ZN8relationC2EPKcP6SchemaS1_,"axG",@progbits,_ZN8relationC5EPKcP6SchemaS1_,comdat
	.align 2
	.weak	_ZN8relationC2EPKcP6SchemaS1_
	.type	_ZN8relationC2EPKcP6SchemaS1_, @function
_ZN8relationC2EPKcP6SchemaS1_:
.LFB1471:
	.file 1 "/home/kaushik/Desktop/DBI/database_implementation/test.h"
	.loc 1 26 5
	.cfi_startproc
	endbr64
	pushq	%rbp
	.cfi_def_cfa_offset 16
	.cfi_offset 6, -16
	movq	%rsp, %rbp
	.cfi_def_cfa_register 6
	subq	$32, %rsp
	movq	%rdi, -8(%rbp)
	movq	%rsi, -16(%rbp)
	movq	%rdx, -24(%rbp)
	movq	%rcx, -32(%rbp)
.LBB2:
	.loc 1 27 59
	movq	-8(%rbp), %rax
	movq	-16(%rbp), %rdx
	movq	%rdx, (%rax)
	movq	-8(%rbp), %rax
	movq	-32(%rbp), %rdx
	movq	%rdx, 8(%rax)
	movq	-8(%rbp), %rax
	movq	-24(%rbp), %rdx
	movq	%rdx, 120(%rax)
	.loc 1 28 16
	movq	-8(%rbp), %rax
	movq	(%rax), %rdx
	movq	-8(%rbp), %rax
	movq	8(%rax), %rax
	.loc 1 28 17
	movq	-8(%rbp), %rcx
	leaq	16(%rcx), %rdi
	.loc 1 28 16
	movq	%rdx, %rcx
	movq	%rax, %rdx
	leaq	.LC0(%rip), %rsi
	movl	$0, %eax
	call	sprintf@PLT
.LBE2:
	.loc 1 29 5
	nop
	leave
	.cfi_def_cfa 7, 8
	ret
	.cfi_endproc
.LFE1471:
	.size	_ZN8relationC2EPKcP6SchemaS1_, .-_ZN8relationC2EPKcP6SchemaS1_
	.weak	_ZN8relationC1EPKcP6SchemaS1_
	.set	_ZN8relationC1EPKcP6SchemaS1_,_ZN8relationC2EPKcP6SchemaS1_
	.section	.text._ZN8relation4nameEv,"axG",@progbits,_ZN8relation4nameEv,comdat
	.align 2
	.weak	_ZN8relation4nameEv
	.type	_ZN8relation4nameEv, @function
_ZN8relation4nameEv:
.LFB1473:
	.loc 1 31 17
	.cfi_startproc
	endbr64
	pushq	%rbp
	.cfi_def_cfa_offset 16
	.cfi_offset 6, -16
	movq	%rsp, %rbp
	.cfi_def_cfa_register 6
	movq	%rdi, -8(%rbp)
	.loc 1 31 33
	movq	-8(%rbp), %rax
	movq	(%rax), %rax
	.loc 1 31 40
	popq	%rbp
	.cfi_def_cfa 7, 8
	ret
	.cfi_endproc
.LFE1473:
	.size	_ZN8relation4nameEv, .-_ZN8relation4nameEv
	.section	.text._ZN8relation4pathEv,"axG",@progbits,_ZN8relation4pathEv,comdat
	.align 2
	.weak	_ZN8relation4pathEv
	.type	_ZN8relation4pathEv, @function
_ZN8relation4pathEv:
.LFB1474:
	.loc 1 33 17
	.cfi_startproc
	endbr64
	pushq	%rbp
	.cfi_def_cfa_offset 16
	.cfi_offset 6, -16
	movq	%rsp, %rbp
	.cfi_def_cfa_register 6
	movq	%rdi, -8(%rbp)
	.loc 1 33 33
	movq	-8(%rbp), %rax
	addq	$16, %rax
	.loc 1 33 40
	popq	%rbp
	.cfi_def_cfa 7, 8
	ret
	.cfi_endproc
.LFE1474:
	.size	_ZN8relation4pathEv, .-_ZN8relation4pathEv
	.section	.text._ZN8relation6schemaEv,"axG",@progbits,_ZN8relation6schemaEv,comdat
	.align 2
	.weak	_ZN8relation6schemaEv
	.type	_ZN8relation6schemaEv, @function
_ZN8relation6schemaEv:
.LFB1475:
	.loc 1 35 13
	.cfi_startproc
	endbr64
	pushq	%rbp
	.cfi_def_cfa_offset 16
	.cfi_offset 6, -16
	movq	%rsp, %rbp
	.cfi_def_cfa_register 6
	movq	%rdi, -8(%rbp)
	.loc 1 35 31
	movq	-8(%rbp), %rax
	movq	120(%rax), %rax
	.loc 1 35 40
	popq	%rbp
	.cfi_def_cfa 7, 8
	ret
	.cfi_endproc
.LFE1475:
	.size	_ZN8relation6schemaEv, .-_ZN8relation6schemaEv
	.section	.rodata
	.align 8
.LC1:
	.string	" Enter CNF predicate (when done press ctrl-D):\n\t"
.LC2:
	.string	"Can't parse your CNF.\n"
	.section	.text._ZN8relation7get_cnfER3CNFR6Record,"axG",@progbits,_ZN8relation7get_cnfER3CNFR6Record,comdat
	.align 2
	.weak	_ZN8relation7get_cnfER3CNFR6Record
	.type	_ZN8relation7get_cnfER3CNFR6Record, @function
_ZN8relation7get_cnfER3CNFR6Record:
.LFB1477:
	.loc 1 43 10
	.cfi_startproc
	endbr64
	pushq	%rbp
	.cfi_def_cfa_offset 16
	.cfi_offset 6, -16
	movq	%rsp, %rbp
	.cfi_def_cfa_register 6
	subq	$32, %rsp
	movq	%rdi, -8(%rbp)
	movq	%rsi, -16(%rbp)
	movq	%rdx, -24(%rbp)
	.loc 1 44 17
	leaq	.LC1(%rip), %rsi
	leaq	_ZSt4cout(%rip), %rdi
	call	_ZStlsISt11char_traitsIcEERSt13basic_ostreamIcT_ES5_PKc@PLT
	.loc 1 45 20
	call	yyparse@PLT
	.loc 1 45 23
	testl	%eax, %eax
	setne	%al
	.loc 1 45 9
	testb	%al, %al
	je	.L9
	.loc 1 46 26
	leaq	.LC2(%rip), %rsi
	leaq	_ZSt4cout(%rip), %rdi
	call	_ZStlsISt11char_traitsIcEERSt13basic_ostreamIcT_ES5_PKc@PLT
	.loc 1 47 17
	movl	$1, %edi
	call	exit@PLT
.L9:
	.loc 1 49 35
	movq	-8(%rbp), %rax
	movq	%rax, %rdi
	call	_ZN8relation6schemaEv
	movq	%rax, %rdi
	movq	final(%rip), %rsi
	movq	-24(%rbp), %rdx
	movq	-16(%rbp), %rax
	movq	%rdx, %rcx
	movq	%rdi, %rdx
	movq	%rax, %rdi
	call	_ZN3CNF17GrowFromParseTreeEP7AndListP6SchemaR6Record@PLT
	.loc 1 50 5
	nop
	leave
	.cfi_def_cfa 7, 8
	ret
	.cfi_endproc
.LFE1477:
	.size	_ZN8relation7get_cnfER3CNFR6Record, .-_ZN8relation7get_cnfER3CNFR6Record
	.globl	supplier
	.section	.rodata
.LC3:
	.string	"supplier"
	.section	.data.rel.local,"aw"
	.align 8
	.type	supplier, @object
	.size	supplier, 8
supplier:
	.quad	.LC3
	.globl	partsupp
	.section	.rodata
.LC4:
	.string	"partsupp"
	.section	.data.rel.local
	.align 8
	.type	partsupp, @object
	.size	partsupp, 8
partsupp:
	.quad	.LC4
	.globl	part
	.section	.rodata
.LC5:
	.string	"part"
	.section	.data.rel.local
	.align 8
	.type	part, @object
	.size	part, 8
part:
	.quad	.LC5
	.globl	nation
	.section	.rodata
.LC6:
	.string	"nation"
	.section	.data.rel.local
	.align 8
	.type	nation, @object
	.size	nation, 8
nation:
	.quad	.LC6
	.globl	customer
	.section	.rodata
.LC7:
	.string	"customer"
	.section	.data.rel.local
	.align 8
	.type	customer, @object
	.size	customer, 8
customer:
	.quad	.LC7
	.globl	orders
	.section	.rodata
.LC8:
	.string	"orders"
	.section	.data.rel.local
	.align 8
	.type	orders, @object
	.size	orders, 8
orders:
	.quad	.LC8
	.globl	region
	.section	.rodata
.LC9:
	.string	"region"
	.section	.data.rel.local
	.align 8
	.type	region, @object
	.size	region, 8
region:
	.quad	.LC9
	.globl	lineitem
	.section	.rodata
.LC10:
	.string	"lineitem"
	.section	.data.rel.local
	.align 8
	.type	lineitem, @object
	.size	lineitem, 8
lineitem:
	.quad	.LC10
	.globl	s
	.bss
	.align 8
	.type	s, @object
	.size	s, 8
s:
	.zero	8
	.globl	p
	.align 8
	.type	p, @object
	.size	p, 8
p:
	.zero	8
	.globl	ps
	.align 8
	.type	ps, @object
	.size	ps, 8
ps:
	.zero	8
	.globl	n
	.align 8
	.type	n, @object
	.size	n, 8
n:
	.zero	8
	.globl	li
	.align 8
	.type	li, @object
	.size	li, 8
li:
	.zero	8
	.globl	r
	.align 8
	.type	r, @object
	.size	r, 8
r:
	.zero	8
	.globl	o
	.align 8
	.type	o, @object
	.size	o, 8
o:
	.zero	8
	.globl	c
	.align 8
	.type	c, @object
	.size	c, 8
c:
	.zero	8
	.section	.rodata
	.align 8
.LC11:
	.string	" \n** IMPORTANT: MAKE SURE THE INFORMATION BELOW IS CORRECT **\n"
.LC12:
	.string	" catalog location: \t"
.LC13:
	.string	" tpch files dir: \t"
.LC14:
	.string	" heap files dir: \t"
.LC15:
	.string	" \n\n"
	.text
	.globl	_Z5setupPKcS0_S0_
	.type	_Z5setupPKcS0_S0_, @function
_Z5setupPKcS0_S0_:
.LFB1478:
	.loc 1 64 84
	.cfi_startproc
	.cfi_personality 0x9b,DW.ref.__gxx_personality_v0
	.cfi_lsda 0x1b,.LLSDA1478
	endbr64
	pushq	%rbp
	.cfi_def_cfa_offset 16
	.cfi_offset 6, -16
	movq	%rsp, %rbp
	.cfi_def_cfa_register 6
	pushq	%r12
	pushq	%rbx
	subq	$32, %rsp
	.cfi_offset 12, -24
	.cfi_offset 3, -32
	movq	%rdi, -24(%rbp)
	movq	%rsi, -32(%rbp)
	movq	%rdx, -40(%rbp)
	.loc 1 65 13
	leaq	.LC11(%rip), %rsi
	leaq	_ZSt4cout(%rip), %rdi
.LEHB0:
	call	_ZStlsISt11char_traitsIcEERSt13basic_ostreamIcT_ES5_PKc@PLT
	.loc 1 66 40
	leaq	.LC12(%rip), %rsi
	leaq	_ZSt4cout(%rip), %rdi
	call	_ZStlsISt11char_traitsIcEERSt13basic_ostreamIcT_ES5_PKc@PLT
	movq	%rax, %rdx
	movq	-24(%rbp), %rax
	movq	%rax, %rsi
	movq	%rdx, %rdi
	call	_ZStlsISt11char_traitsIcEERSt13basic_ostreamIcT_ES5_PKc@PLT
	movq	%rax, %rdx
	.loc 1 66 56
	movq	_ZSt4endlIcSt11char_traitsIcEERSt13basic_ostreamIT_T0_ES6_@GOTPCREL(%rip), %rax
	movq	%rax, %rsi
	movq	%rdx, %rdi
	call	_ZNSolsEPFRSoS_E@PLT
	.loc 1 67 38
	leaq	.LC13(%rip), %rsi
	leaq	_ZSt4cout(%rip), %rdi
	call	_ZStlsISt11char_traitsIcEERSt13basic_ostreamIcT_ES5_PKc@PLT
	movq	%rax, %rdx
	movq	-40(%rbp), %rax
	movq	%rax, %rsi
	movq	%rdx, %rdi
	call	_ZStlsISt11char_traitsIcEERSt13basic_ostreamIcT_ES5_PKc@PLT
	movq	%rax, %rdx
	.loc 1 67 50
	movq	_ZSt4endlIcSt11char_traitsIcEERSt13basic_ostreamIT_T0_ES6_@GOTPCREL(%rip), %rax
	movq	%rax, %rsi
	movq	%rdx, %rdi
	call	_ZNSolsEPFRSoS_E@PLT
	.loc 1 68 38
	leaq	.LC14(%rip), %rsi
	leaq	_ZSt4cout(%rip), %rdi
	call	_ZStlsISt11char_traitsIcEERSt13basic_ostreamIcT_ES5_PKc@PLT
	movq	%rax, %rdx
	movq	-32(%rbp), %rax
	movq	%rax, %rsi
	movq	%rdx, %rdi
	call	_ZStlsISt11char_traitsIcEERSt13basic_ostreamIcT_ES5_PKc@PLT
	movq	%rax, %rdx
	.loc 1 68 52
	movq	_ZSt4endlIcSt11char_traitsIcEERSt13basic_ostreamIT_T0_ES6_@GOTPCREL(%rip), %rax
	movq	%rax, %rsi
	movq	%rdx, %rdi
	call	_ZNSolsEPFRSoS_E@PLT
	.loc 1 69 13
	leaq	.LC15(%rip), %rsi
	leaq	_ZSt4cout(%rip), %rdi
	call	_ZStlsISt11char_traitsIcEERSt13basic_ostreamIcT_ES5_PKc@PLT
	.loc 1 71 65
	movl	$24, %edi
	call	_Znwm@PLT
.LEHE0:
	movq	%rax, %rbx
	movq	supplier(%rip), %rdx
	movq	-24(%rbp), %rax
	movq	%rax, %rsi
	movq	%rbx, %rdi
.LEHB1:
	call	_ZN6SchemaC1EPKcS1_@PLT
.LEHE1:
	.loc 1 71 78 discriminator 2
	movl	$128, %edi
.LEHB2:
	call	_Znwm@PLT
	movq	%rax, %r12
	movq	supplier(%rip), %rax
	movq	-32(%rbp), %rdx
	movq	%rdx, %rcx
	movq	%rbx, %rdx
	movq	%rax, %rsi
	movq	%r12, %rdi
	call	_ZN8relationC1EPKcP6SchemaS1_
	.loc 1 71 7 discriminator 2
	movq	%r12, s(%rip)
	.loc 1 72 66 discriminator 2
	movl	$24, %edi
	call	_Znwm@PLT
.LEHE2:
	movq	%rax, %rbx
	movq	partsupp(%rip), %rdx
	movq	-24(%rbp), %rax
	movq	%rax, %rsi
	movq	%rbx, %rdi
.LEHB3:
	call	_ZN6SchemaC1EPKcS1_@PLT
.LEHE3:
	.loc 1 72 79 discriminator 2
	movl	$128, %edi
.LEHB4:
	call	_Znwm@PLT
	movq	%rax, %r12
	movq	partsupp(%rip), %rax
	movq	-32(%rbp), %rdx
	movq	%rdx, %rcx
	movq	%rbx, %rdx
	movq	%rax, %rsi
	movq	%r12, %rdi
	call	_ZN8relationC1EPKcP6SchemaS1_
	.loc 1 72 8 discriminator 2
	movq	%r12, ps(%rip)
	.loc 1 73 57 discriminator 2
	movl	$24, %edi
	call	_Znwm@PLT
.LEHE4:
	movq	%rax, %rbx
	movq	part(%rip), %rdx
	movq	-24(%rbp), %rax
	movq	%rax, %rsi
	movq	%rbx, %rdi
.LEHB5:
	call	_ZN6SchemaC1EPKcS1_@PLT
.LEHE5:
	.loc 1 73 70 discriminator 2
	movl	$128, %edi
.LEHB6:
	call	_Znwm@PLT
	movq	%rax, %r12
	movq	part(%rip), %rax
	movq	-32(%rbp), %rdx
	movq	%rdx, %rcx
	movq	%rbx, %rdx
	movq	%rax, %rsi
	movq	%r12, %rdi
	call	_ZN8relationC1EPKcP6SchemaS1_
	.loc 1 73 7 discriminator 2
	movq	%r12, p(%rip)
	.loc 1 74 61 discriminator 2
	movl	$24, %edi
	call	_Znwm@PLT
.LEHE6:
	movq	%rax, %rbx
	movq	nation(%rip), %rdx
	movq	-24(%rbp), %rax
	movq	%rax, %rsi
	movq	%rbx, %rdi
.LEHB7:
	call	_ZN6SchemaC1EPKcS1_@PLT
.LEHE7:
	.loc 1 74 74 discriminator 2
	movl	$128, %edi
.LEHB8:
	call	_Znwm@PLT
	movq	%rax, %r12
	movq	nation(%rip), %rax
	movq	-32(%rbp), %rdx
	movq	%rdx, %rcx
	movq	%rbx, %rdx
	movq	%rax, %rsi
	movq	%r12, %rdi
	call	_ZN8relationC1EPKcP6SchemaS1_
	.loc 1 74 7 discriminator 2
	movq	%r12, n(%rip)
	.loc 1 75 66 discriminator 2
	movl	$24, %edi
	call	_Znwm@PLT
.LEHE8:
	movq	%rax, %rbx
	movq	lineitem(%rip), %rdx
	movq	-24(%rbp), %rax
	movq	%rax, %rsi
	movq	%rbx, %rdi
.LEHB9:
	call	_ZN6SchemaC1EPKcS1_@PLT
.LEHE9:
	.loc 1 75 79 discriminator 2
	movl	$128, %edi
.LEHB10:
	call	_Znwm@PLT
	movq	%rax, %r12
	movq	lineitem(%rip), %rax
	movq	-32(%rbp), %rdx
	movq	%rdx, %rcx
	movq	%rbx, %rdx
	movq	%rax, %rsi
	movq	%r12, %rdi
	call	_ZN8relationC1EPKcP6SchemaS1_
	.loc 1 75 8 discriminator 2
	movq	%r12, li(%rip)
	.loc 1 76 61 discriminator 2
	movl	$24, %edi
	call	_Znwm@PLT
.LEHE10:
	movq	%rax, %rbx
	movq	region(%rip), %rdx
	movq	-24(%rbp), %rax
	movq	%rax, %rsi
	movq	%rbx, %rdi
.LEHB11:
	call	_ZN6SchemaC1EPKcS1_@PLT
.LEHE11:
	.loc 1 76 74 discriminator 2
	movl	$128, %edi
.LEHB12:
	call	_Znwm@PLT
	movq	%rax, %r12
	movq	region(%rip), %rax
	movq	-32(%rbp), %rdx
	movq	%rdx, %rcx
	movq	%rbx, %rdx
	movq	%rax, %rsi
	movq	%r12, %rdi
	call	_ZN8relationC1EPKcP6SchemaS1_
	.loc 1 76 7 discriminator 2
	movq	%r12, r(%rip)
	.loc 1 77 61 discriminator 2
	movl	$24, %edi
	call	_Znwm@PLT
.LEHE12:
	movq	%rax, %rbx
	movq	orders(%rip), %rdx
	movq	-24(%rbp), %rax
	movq	%rax, %rsi
	movq	%rbx, %rdi
.LEHB13:
	call	_ZN6SchemaC1EPKcS1_@PLT
.LEHE13:
	.loc 1 77 74 discriminator 2
	movl	$128, %edi
.LEHB14:
	call	_Znwm@PLT
	movq	%rax, %r12
	movq	orders(%rip), %rax
	movq	-32(%rbp), %rdx
	movq	%rdx, %rcx
	movq	%rbx, %rdx
	movq	%rax, %rsi
	movq	%r12, %rdi
	call	_ZN8relationC1EPKcP6SchemaS1_
	.loc 1 77 7 discriminator 2
	movq	%r12, o(%rip)
	.loc 1 78 65 discriminator 2
	movl	$24, %edi
	call	_Znwm@PLT
.LEHE14:
	movq	%rax, %rbx
	movq	customer(%rip), %rdx
	movq	-24(%rbp), %rax
	movq	%rax, %rsi
	movq	%rbx, %rdi
.LEHB15:
	call	_ZN6SchemaC1EPKcS1_@PLT
.LEHE15:
	.loc 1 78 78 discriminator 2
	movl	$128, %edi
.LEHB16:
	call	_Znwm@PLT
	movq	%rax, %r12
	movq	customer(%rip), %rax
	movq	-32(%rbp), %rdx
	movq	%rdx, %rcx
	movq	%rbx, %rdx
	movq	%rax, %rsi
	movq	%r12, %rdi
	call	_ZN8relationC1EPKcP6SchemaS1_
	.loc 1 78 7 discriminator 2
	movq	%r12, c(%rip)
	.loc 1 79 1 discriminator 2
	jmp	.L27
.L19:
	endbr64
	movq	%rax, %r12
	.loc 1 71 65
	movq	%rbx, %rdi
	call	_ZdlPv@PLT
	movq	%r12, %rax
	movq	%rax, %rdi
	call	_Unwind_Resume@PLT
.L20:
	endbr64
	movq	%rax, %r12
	.loc 1 72 66
	movq	%rbx, %rdi
	call	_ZdlPv@PLT
	movq	%r12, %rax
	movq	%rax, %rdi
	call	_Unwind_Resume@PLT
.L21:
	endbr64
	movq	%rax, %r12
	.loc 1 73 57
	movq	%rbx, %rdi
	call	_ZdlPv@PLT
	movq	%r12, %rax
	movq	%rax, %rdi
	call	_Unwind_Resume@PLT
.L22:
	endbr64
	movq	%rax, %r12
	.loc 1 74 61
	movq	%rbx, %rdi
	call	_ZdlPv@PLT
	movq	%r12, %rax
	movq	%rax, %rdi
	call	_Unwind_Resume@PLT
.L23:
	endbr64
	movq	%rax, %r12
	.loc 1 75 66
	movq	%rbx, %rdi
	call	_ZdlPv@PLT
	movq	%r12, %rax
	movq	%rax, %rdi
	call	_Unwind_Resume@PLT
.L24:
	endbr64
	movq	%rax, %r12
	.loc 1 76 61
	movq	%rbx, %rdi
	call	_ZdlPv@PLT
	movq	%r12, %rax
	movq	%rax, %rdi
	call	_Unwind_Resume@PLT
.L25:
	endbr64
	movq	%rax, %r12
	.loc 1 77 61
	movq	%rbx, %rdi
	call	_ZdlPv@PLT
	movq	%r12, %rax
	movq	%rax, %rdi
	call	_Unwind_Resume@PLT
.L26:
	endbr64
	movq	%rax, %r12
	.loc 1 78 65
	movq	%rbx, %rdi
	call	_ZdlPv@PLT
	movq	%r12, %rax
	movq	%rax, %rdi
	call	_Unwind_Resume@PLT
.LEHE16:
.L27:
	.loc 1 79 1
	addq	$32, %rsp
	popq	%rbx
	popq	%r12
	popq	%rbp
	.cfi_def_cfa 7, 8
	ret
	.cfi_endproc
.LFE1478:
	.globl	__gxx_personality_v0
	.section	.gcc_except_table,"a",@progbits
.LLSDA1478:
	.byte	0xff
	.byte	0xff
	.byte	0x1
	.uleb128 .LLSDACSE1478-.LLSDACSB1478
.LLSDACSB1478:
	.uleb128 .LEHB0-.LFB1478
	.uleb128 .LEHE0-.LEHB0
	.uleb128 0
	.uleb128 0
	.uleb128 .LEHB1-.LFB1478
	.uleb128 .LEHE1-.LEHB1
	.uleb128 .L19-.LFB1478
	.uleb128 0
	.uleb128 .LEHB2-.LFB1478
	.uleb128 .LEHE2-.LEHB2
	.uleb128 0
	.uleb128 0
	.uleb128 .LEHB3-.LFB1478
	.uleb128 .LEHE3-.LEHB3
	.uleb128 .L20-.LFB1478
	.uleb128 0
	.uleb128 .LEHB4-.LFB1478
	.uleb128 .LEHE4-.LEHB4
	.uleb128 0
	.uleb128 0
	.uleb128 .LEHB5-.LFB1478
	.uleb128 .LEHE5-.LEHB5
	.uleb128 .L21-.LFB1478
	.uleb128 0
	.uleb128 .LEHB6-.LFB1478
	.uleb128 .LEHE6-.LEHB6
	.uleb128 0
	.uleb128 0
	.uleb128 .LEHB7-.LFB1478
	.uleb128 .LEHE7-.LEHB7
	.uleb128 .L22-.LFB1478
	.uleb128 0
	.uleb128 .LEHB8-.LFB1478
	.uleb128 .LEHE8-.LEHB8
	.uleb128 0
	.uleb128 0
	.uleb128 .LEHB9-.LFB1478
	.uleb128 .LEHE9-.LEHB9
	.uleb128 .L23-.LFB1478
	.uleb128 0
	.uleb128 .LEHB10-.LFB1478
	.uleb128 .LEHE10-.LEHB10
	.uleb128 0
	.uleb128 0
	.uleb128 .LEHB11-.LFB1478
	.uleb128 .LEHE11-.LEHB11
	.uleb128 .L24-.LFB1478
	.uleb128 0
	.uleb128 .LEHB12-.LFB1478
	.uleb128 .LEHE12-.LEHB12
	.uleb128 0
	.uleb128 0
	.uleb128 .LEHB13-.LFB1478
	.uleb128 .LEHE13-.LEHB13
	.uleb128 .L25-.LFB1478
	.uleb128 0
	.uleb128 .LEHB14-.LFB1478
	.uleb128 .LEHE14-.LEHB14
	.uleb128 0
	.uleb128 0
	.uleb128 .LEHB15-.LFB1478
	.uleb128 .LEHE15-.LEHB15
	.uleb128 .L26-.LFB1478
	.uleb128 0
	.uleb128 .LEHB16-.LFB1478
	.uleb128 .LEHE16-.LEHB16
	.uleb128 0
	.uleb128 0
.LLSDACSE1478:
	.text
	.size	_Z5setupPKcS0_S0_, .-_Z5setupPKcS0_S0_
	.globl	_Z7cleanupv
	.type	_Z7cleanupv, @function
_Z7cleanupv:
.LFB1479:
	.loc 1 81 16
	.cfi_startproc
	endbr64
	pushq	%rbp
	.cfi_def_cfa_offset 16
	.cfi_offset 6, -16
	movq	%rsp, %rbp
	.cfi_def_cfa_register 6
	.loc 1 82 12
	movq	s(%rip), %rax
	.loc 1 82 13
	testq	%rax, %rax
	je	.L29
	.loc 1 82 12 discriminator 1
	movq	%rax, %rdi
	call	_ZdlPv@PLT
.L29:
	.loc 1 83 12
	movq	p(%rip), %rax
	.loc 1 83 13
	testq	%rax, %rax
	je	.L30
	.loc 1 83 12 discriminator 1
	movq	%rax, %rdi
	call	_ZdlPv@PLT
.L30:
	.loc 1 84 12
	movq	ps(%rip), %rax
	.loc 1 84 14
	testq	%rax, %rax
	je	.L31
	.loc 1 84 12 discriminator 1
	movq	%rax, %rdi
	call	_ZdlPv@PLT
.L31:
	.loc 1 85 12
	movq	n(%rip), %rax
	.loc 1 85 13
	testq	%rax, %rax
	je	.L32
	.loc 1 85 12 discriminator 1
	movq	%rax, %rdi
	call	_ZdlPv@PLT
.L32:
	.loc 1 86 12
	movq	li(%rip), %rax
	.loc 1 86 14
	testq	%rax, %rax
	je	.L33
	.loc 1 86 12 discriminator 1
	movq	%rax, %rdi
	call	_ZdlPv@PLT
.L33:
	.loc 1 87 12
	movq	r(%rip), %rax
	.loc 1 87 13
	testq	%rax, %rax
	je	.L34
	.loc 1 87 12 discriminator 1
	movq	%rax, %rdi
	call	_ZdlPv@PLT
.L34:
	.loc 1 88 12
	movq	o(%rip), %rax
	.loc 1 88 13
	testq	%rax, %rax
	je	.L35
	.loc 1 88 12 discriminator 1
	movq	%rax, %rdi
	call	_ZdlPv@PLT
.L35:
	.loc 1 89 12
	movq	c(%rip), %rax
	.loc 1 89 13
	testq	%rax, %rax
	je	.L37
	.loc 1 89 12 discriminator 1
	movq	%rax, %rdi
	call	_ZdlPv@PLT
.L37:
	.loc 1 90 1
	nop
	popq	%rbp
	.cfi_def_cfa 7, 8
	ret
	.cfi_endproc
.LFE1479:
	.size	_Z7cleanupv, .-_Z7cleanupv
	.section	.rodata
	.align 8
.LC16:
	.string	"/cise/homes/msodhani/server.ignore"
	.text
	.globl	_Z10fileExistsv
	.type	_Z10fileExistsv, @function
_Z10fileExistsv:
.LFB1598:
	.file 2 "/home/kaushik/Desktop/DBI/database_implementation/test.cc"
	.loc 2 6 19
	.cfi_startproc
	.cfi_personality 0x9b,DW.ref.__gxx_personality_v0
	.cfi_lsda 0x1b,.LLSDA1598
	endbr64
	pushq	%rbp
	.cfi_def_cfa_offset 16
	.cfi_offset 6, -16
	movq	%rsp, %rbp
	.cfi_def_cfa_register 6
	pushq	%rbx
	subq	$584, %rsp
	.cfi_offset 3, -24
	.loc 2 6 19
	movq	%fs:40, %rax
	movq	%rax, -24(%rbp)
	xorl	%eax, %eax
	.loc 2 7 28
	leaq	-577(%rbp), %rax
	movq	%rax, %rdi
	call	_ZNSaIcEC1Ev@PLT
	leaq	-577(%rbp), %rdx
	leaq	-576(%rbp), %rax
	leaq	.LC16(%rip), %rsi
	movq	%rax, %rdi
.LEHB17:
	call	_ZNSt7__cxx1112basic_stringIcSt11char_traitsIcESaIcEEC1EPKcRKS3_@PLT
.LEHE17:
	leaq	-577(%rbp), %rax
	movq	%rax, %rdi
	call	_ZNSaIcED1Ev@PLT
	.loc 2 8 32
	leaq	-576(%rbp), %rax
	movq	%rax, %rdi
	call	_ZNKSt7__cxx1112basic_stringIcSt11char_traitsIcESaIcEE5c_strEv@PLT
	movq	%rax, %rcx
	leaq	-544(%rbp), %rax
	movl	$8, %edx
	movq	%rcx, %rsi
	movq	%rax, %rdi
.LEHB18:
	call	_ZNSt14basic_ifstreamIcSt11char_traitsIcEEC1EPKcSt13_Ios_Openmode@PLT
.LEHE18:
	.loc 2 9 18
	leaq	-544(%rbp), %rax
	addq	$256, %rax
	movq	%rax, %rdi
.LEHB19:
	call	_ZNKSt9basic_iosIcSt11char_traitsIcEE4goodEv@PLT
.LEHE19:
	movl	%eax, %ebx
	.loc 2 9 19
	nop
	.loc 2 8 32
	leaq	-544(%rbp), %rax
	movq	%rax, %rdi
	call	_ZNSt14basic_ifstreamIcSt11char_traitsIcEED1Ev@PLT
	.loc 2 7 28
	leaq	-576(%rbp), %rax
	movq	%rax, %rdi
	call	_ZNSt7__cxx1112basic_stringIcSt11char_traitsIcESaIcEED1Ev@PLT
	.loc 2 9 19
	movl	%ebx, %eax
	.loc 2 10 1
	movq	-24(%rbp), %rcx
	xorq	%fs:40, %rcx
	je	.L43
	jmp	.L47
.L44:
	endbr64
	movq	%rax, %rbx
	leaq	-577(%rbp), %rax
	movq	%rax, %rdi
	call	_ZNSaIcED1Ev@PLT
	movq	%rbx, %rax
	movq	%rax, %rdi
.LEHB20:
	call	_Unwind_Resume@PLT
.L46:
	endbr64
	movq	%rax, %rbx
	.loc 2 8 32
	leaq	-544(%rbp), %rax
	movq	%rax, %rdi
	call	_ZNSt14basic_ifstreamIcSt11char_traitsIcEED1Ev@PLT
	jmp	.L42
.L45:
	endbr64
	movq	%rax, %rbx
.L42:
	.loc 2 7 28
	leaq	-576(%rbp), %rax
	movq	%rax, %rdi
	call	_ZNSt7__cxx1112basic_stringIcSt11char_traitsIcESaIcEED1Ev@PLT
	movq	%rbx, %rax
	movq	%rax, %rdi
	call	_Unwind_Resume@PLT
.LEHE20:
.L47:
	.loc 2 10 1
	call	__stack_chk_fail@PLT
.L43:
	addq	$584, %rsp
	popq	%rbx
	popq	%rbp
	.cfi_def_cfa 7, 8
	ret
	.cfi_endproc
.LFE1598:
	.section	.gcc_except_table
.LLSDA1598:
	.byte	0xff
	.byte	0xff
	.byte	0x1
	.uleb128 .LLSDACSE1598-.LLSDACSB1598
.LLSDACSB1598:
	.uleb128 .LEHB17-.LFB1598
	.uleb128 .LEHE17-.LEHB17
	.uleb128 .L44-.LFB1598
	.uleb128 0
	.uleb128 .LEHB18-.LFB1598
	.uleb128 .LEHE18-.LEHB18
	.uleb128 .L45-.LFB1598
	.uleb128 0
	.uleb128 .LEHB19-.LFB1598
	.uleb128 .LEHE19-.LEHB19
	.uleb128 .L46-.LFB1598
	.uleb128 0
	.uleb128 .LEHB20-.LFB1598
	.uleb128 .LEHE20-.LEHB20
	.uleb128 0
	.uleb128 0
.LLSDACSE1598:
	.text
	.size	_Z10fileExistsv, .-_Z10fileExistsv
	.globl	dbfile_dir
	.section	.rodata
.LC17:
	.string	""
	.section	.data.rel.local
	.align 8
	.type	dbfile_dir, @object
	.size	dbfile_dir, 8
dbfile_dir:
	.quad	.LC17
	.globl	tpch_dir
	.section	.rodata
	.align 8
.LC18:
	.string	"/home/kaushik/Desktop/tpch/tpch-dbgen/"
	.section	.data.rel.local
	.align 8
	.type	tpch_dir, @object
	.size	tpch_dir, 8
tpch_dir:
	.quad	.LC18
	.globl	catalog_path
	.section	.rodata
.LC19:
	.string	"catalog"
	.section	.data.rel.local
	.align 8
	.type	catalog_path, @object
	.size	catalog_path, 8
catalog_path:
	.quad	.LC19
	.globl	rel
	.bss
	.align 8
	.type	rel, @object
	.size	rel, 8
rel:
	.zero	8
	.section	.rodata
.LC20:
	.string	" DBFile will be created at "
.LC21:
	.string	"%s%s.tbl"
	.align 8
.LC22:
	.string	" tpch file will be loaded from "
	.text
	.globl	_Z5test1v
	.type	_Z5test1v, @function
_Z5test1v:
.LFB1599:
	.loc 2 26 14
	.cfi_startproc
	.cfi_personality 0x9b,DW.ref.__gxx_personality_v0
	.cfi_lsda 0x1b,.LLSDA1599
	endbr64
	pushq	%rbp
	.cfi_def_cfa_offset 16
	.cfi_offset 6, -16
	movq	%rsp, %rbp
	.cfi_def_cfa_register 6
	pushq	%rbx
	subq	$184, %rsp
	.cfi_offset 3, -24
	.loc 2 26 14
	movq	%fs:40, %rax
	movq	%rax, -24(%rbp)
	xorl	%eax, %eax
	.loc 2 28 12
	leaq	-192(%rbp), %rax
	movq	%rax, %rdi
.LEHB21:
	call	_ZN6DBFileC1Ev@PLT
.LEHE21:
	.loc 2 29 56
	leaq	.LC20(%rip), %rsi
	leaq	_ZSt4cout(%rip), %rdi
.LEHB22:
	call	_ZStlsISt11char_traitsIcEERSt13basic_ostreamIcT_ES5_PKc@PLT
	movq	%rax, %rbx
	movq	rel(%rip), %rax
	movq	%rax, %rdi
	call	_ZN8relation4pathEv
	movq	%rax, %rsi
	movq	%rbx, %rdi
	call	_ZStlsISt11char_traitsIcEERSt13basic_ostreamIcT_ES5_PKc@PLT
	.loc 2 29 56 is_stmt 0 discriminator 1
	movq	%rax, %rdx
	.loc 2 29 61 is_stmt 1 discriminator 1
	movq	_ZSt4endlIcSt11char_traitsIcEERSt13basic_ostreamIT_T0_ES6_@GOTPCREL(%rip), %rax
	movq	%rax, %rsi
	movq	%rdx, %rdi
	call	_ZNSolsEPFRSoS_E@PLT
	.loc 2 30 18
	movq	rel(%rip), %rax
	movq	%rax, %rdi
	call	_ZN8relation4pathEv
	movq	%rax, %rsi
	leaq	-192(%rbp), %rax
	movl	$0, %ecx
	movl	$0, %edx
	movq	%rax, %rdi
	call	_ZN6DBFile6CreateEPKc5fTypePv@PLT
	.loc 2 33 12
	movq	rel(%rip), %rax
	movq	%rax, %rdi
	call	_ZN8relation4nameEv
	movq	%rax, %rcx
	movq	tpch_dir(%rip), %rdx
	leaq	-128(%rbp), %rax
	leaq	.LC21(%rip), %rsi
	movq	%rax, %rdi
	movl	$0, %eax
	call	sprintf@PLT
	.loc 2 34 50
	leaq	.LC22(%rip), %rsi
	leaq	_ZSt4cout(%rip), %rdi
	call	_ZStlsISt11char_traitsIcEERSt13basic_ostreamIcT_ES5_PKc@PLT
	movq	%rax, %rdx
	leaq	-128(%rbp), %rax
	movq	%rax, %rsi
	movq	%rdx, %rdi
	call	_ZStlsISt11char_traitsIcEERSt13basic_ostreamIcT_ES5_PKc@PLT
	.loc 2 34 50 is_stmt 0 discriminator 1
	movq	%rax, %rdx
	.loc 2 34 62 is_stmt 1 discriminator 1
	movq	_ZSt4endlIcSt11char_traitsIcEERSt13basic_ostreamIT_T0_ES6_@GOTPCREL(%rip), %rax
	movq	%rax, %rsi
	movq	%rdx, %rdi
	call	_ZNSolsEPFRSoS_E@PLT
	.loc 2 36 30
	movq	rel(%rip), %rax
	movq	%rax, %rdi
	call	_ZN8relation6schemaEv
	movq	%rax, %rcx
	.loc 2 36 16
	leaq	-128(%rbp), %rdx
	leaq	-192(%rbp), %rax
	movq	%rcx, %rsi
	movq	%rax, %rdi
	call	_ZN6DBFile4LoadER6SchemaPKc@PLT
	.loc 2 37 17
	leaq	-192(%rbp), %rax
	movq	%rax, %rdi
	call	_ZN6DBFile5CloseEv@PLT
.LEHE22:
	.loc 2 28 12
	leaq	-192(%rbp), %rax
	movq	%rax, %rdi
	call	_ZN6DBFileD1Ev@PLT
	.loc 2 38 1
	nop
	movq	-24(%rbp), %rax
	xorq	%fs:40, %rax
	je	.L50
	jmp	.L52
.L51:
	endbr64
	movq	%rax, %rbx
	.loc 2 28 12
	leaq	-192(%rbp), %rax
	movq	%rax, %rdi
	call	_ZN6DBFileD1Ev@PLT
	movq	%rbx, %rax
	movq	%rax, %rdi
.LEHB23:
	call	_Unwind_Resume@PLT
.LEHE23:
.L52:
	.loc 2 38 1
	call	__stack_chk_fail@PLT
.L50:
	addq	$184, %rsp
	popq	%rbx
	popq	%rbp
	.cfi_def_cfa 7, 8
	ret
	.cfi_endproc
.LFE1599:
	.section	.gcc_except_table
.LLSDA1599:
	.byte	0xff
	.byte	0xff
	.byte	0x1
	.uleb128 .LLSDACSE1599-.LLSDACSB1599
.LLSDACSB1599:
	.uleb128 .LEHB21-.LFB1599
	.uleb128 .LEHE21-.LEHB21
	.uleb128 0
	.uleb128 0
	.uleb128 .LEHB22-.LFB1599
	.uleb128 .LEHE22-.LEHB22
	.uleb128 .L51-.LFB1599
	.uleb128 0
	.uleb128 .LEHB23-.LFB1599
	.uleb128 .LEHE23-.LEHB23
	.uleb128 0
	.uleb128 0
.LLSDACSE1599:
	.text
	.size	_Z5test1v, .-_Z5test1v
	.section	.rodata
.LC23:
	.string	"\n"
.LC24:
	.string	" scanned "
.LC25:
	.string	" recs \n"
	.text
	.globl	_Z5test2v
	.type	_Z5test2v, @function
_Z5test2v:
.LFB1600:
	.loc 2 41 14
	.cfi_startproc
	.cfi_personality 0x9b,DW.ref.__gxx_personality_v0
	.cfi_lsda 0x1b,.LLSDA1600
	endbr64
	pushq	%rbp
	.cfi_def_cfa_offset 16
	.cfi_offset 6, -16
	movq	%rsp, %rbp
	.cfi_def_cfa_register 6
	pushq	%rbx
	subq	$88, %rsp
	.cfi_offset 3, -24
	.loc 2 41 14
	movq	%fs:40, %rax
	movq	%rax, -24(%rbp)
	xorl	%eax, %eax
	.loc 2 43 12
	leaq	-80(%rbp), %rax
	movq	%rax, %rdi
.LEHB24:
	call	_ZN6DBFileC1Ev@PLT
.LEHE24:
	.loc 2 44 16
	movq	rel(%rip), %rax
	movq	%rax, %rdi
	call	_ZN8relation4pathEv
	movq	%rax, %rdx
	leaq	-80(%rbp), %rax
	movq	%rdx, %rsi
	movq	%rax, %rdi
.LEHB25:
	call	_ZN6DBFile4OpenEPKc@PLT
	.loc 2 45 21
	leaq	-80(%rbp), %rax
	movq	%rax, %rdi
	call	_ZN6DBFile9MoveFirstEv@PLT
	.loc 2 47 12
	leaq	-88(%rbp), %rax
	movq	%rax, %rdi
	call	_ZN6RecordC1Ev@PLT
.LEHE25:
	.loc 2 49 9
	movl	$0, -92(%rbp)
.L56:
	.loc 2 50 26
	leaq	-88(%rbp), %rdx
	leaq	-80(%rbp), %rax
	movq	%rdx, %rsi
	movq	%rax, %rdi
.LEHB26:
	call	_ZN6DBFile7GetNextER6Record@PLT
	.loc 2 50 33
	cmpl	$1, %eax
	sete	%al
	testb	%al, %al
	je	.L54
	.loc 2 51 17
	addl	$1, -92(%rbp)
	.loc 2 52 19
	movq	rel(%rip), %rax
	movq	%rax, %rdi
	call	_ZN8relation6schemaEv
	movq	%rax, %rdx
	leaq	-88(%rbp), %rax
	movq	%rdx, %rsi
	movq	%rax, %rdi
	call	_ZN6Record5PrintEP6Schema@PLT
	.loc 2 53 21
	movl	-92(%rbp), %edx
	movslq	%edx, %rax
	imulq	$1759218605, %rax, %rax
	shrq	$32, %rax
	movl	%eax, %ecx
	sarl	$12, %ecx
	movl	%edx, %eax
	sarl	$31, %eax
	subl	%eax, %ecx
	movl	%ecx, %eax
	imull	$10000, %eax, %eax
	subl	%eax, %edx
	movl	%edx, %eax
	.loc 2 53 9
	testl	%eax, %eax
	jne	.L56
	.loc 2 54 32
	movl	-92(%rbp), %eax
	movl	%eax, %esi
	leaq	_ZSt4cout(%rip), %rdi
	call	_ZNSolsEi@PLT
	leaq	.LC23(%rip), %rsi
	movq	%rax, %rdi
	call	_ZStlsISt11char_traitsIcEERSt13basic_ostreamIcT_ES5_PKc@PLT
	.loc 2 50 5
	jmp	.L56
.L54:
	.loc 2 57 13
	leaq	.LC24(%rip), %rsi
	leaq	_ZSt4cout(%rip), %rdi
	call	_ZStlsISt11char_traitsIcEERSt13basic_ostreamIcT_ES5_PKc@PLT
	movq	%rax, %rdx
	.loc 2 57 39
	movl	-92(%rbp), %eax
	movl	%eax, %esi
	movq	%rdx, %rdi
	call	_ZNSolsEi@PLT
	.loc 2 57 39 is_stmt 0 discriminator 1
	leaq	.LC25(%rip), %rsi
	movq	%rax, %rdi
	call	_ZStlsISt11char_traitsIcEERSt13basic_ostreamIcT_ES5_PKc@PLT
	.loc 2 58 17 is_stmt 1
	leaq	-80(%rbp), %rax
	movq	%rax, %rdi
	call	_ZN6DBFile5CloseEv@PLT
.LEHE26:
	.loc 2 47 12
	leaq	-88(%rbp), %rax
	movq	%rax, %rdi
	call	_ZN6RecordD1Ev@PLT
	.loc 2 43 12
	leaq	-80(%rbp), %rax
	movq	%rax, %rdi
	call	_ZN6DBFileD1Ev@PLT
	.loc 2 59 1
	nop
	movq	-24(%rbp), %rax
	xorq	%fs:40, %rax
	je	.L59
	jmp	.L62
.L61:
	endbr64
	movq	%rax, %rbx
	.loc 2 47 12
	leaq	-88(%rbp), %rax
	movq	%rax, %rdi
	call	_ZN6RecordD1Ev@PLT
	jmp	.L58
.L60:
	endbr64
	movq	%rax, %rbx
.L58:
	.loc 2 43 12
	leaq	-80(%rbp), %rax
	movq	%rax, %rdi
	call	_ZN6DBFileD1Ev@PLT
	movq	%rbx, %rax
	movq	%rax, %rdi
.LEHB27:
	call	_Unwind_Resume@PLT
.LEHE27:
.L62:
	.loc 2 59 1
	call	__stack_chk_fail@PLT
.L59:
	addq	$88, %rsp
	popq	%rbx
	popq	%rbp
	.cfi_def_cfa 7, 8
	ret
	.cfi_endproc
.LFE1600:
	.section	.gcc_except_table
.LLSDA1600:
	.byte	0xff
	.byte	0xff
	.byte	0x1
	.uleb128 .LLSDACSE1600-.LLSDACSB1600
.LLSDACSB1600:
	.uleb128 .LEHB24-.LFB1600
	.uleb128 .LEHE24-.LEHB24
	.uleb128 0
	.uleb128 0
	.uleb128 .LEHB25-.LFB1600
	.uleb128 .LEHE25-.LEHB25
	.uleb128 .L60-.LFB1600
	.uleb128 0
	.uleb128 .LEHB26-.LFB1600
	.uleb128 .LEHE26-.LEHB26
	.uleb128 .L61-.LFB1600
	.uleb128 0
	.uleb128 .LEHB27-.LFB1600
	.uleb128 .LEHE27-.LEHB27
	.uleb128 0
	.uleb128 0
.LLSDACSE1600:
	.text
	.size	_Z5test2v, .-_Z5test2v
	.section	.text._ZN3CNFC2Ev,"axG",@progbits,_ZN3CNFC5Ev,comdat
	.align 2
	.weak	_ZN3CNFC2Ev
	.type	_ZN3CNFC2Ev, @function
_ZN3CNFC2Ev:
.LFB1603:
	.file 3 "/home/kaushik/Desktop/DBI/database_implementation/Comparison.h"
	.loc 3 71 7
	.cfi_startproc
	endbr64
	pushq	%rbp
	.cfi_def_cfa_offset 16
	.cfi_offset 6, -16
	movq	%rsp, %rbp
	.cfi_def_cfa_register 6
	pushq	%r14
	pushq	%r13
	pushq	%r12
	pushq	%rbx
	subq	$16, %rsp
	.cfi_offset 14, -24
	.cfi_offset 13, -32
	.cfi_offset 12, -40
	.cfi_offset 3, -48
	movq	%rdi, -40(%rbp)
.LBB3:
	.loc 3 71 7
	movq	-40(%rbp), %rax
	movl	$19, %ebx
	movq	%rax, %r13
.L67:
	.loc 3 71 7 is_stmt 0 discriminator 8
	testq	%rbx, %rbx
	js	.L68
	.loc 3 71 7 discriminator 3
	movq	%r13, %r14
	movl	$19, %r12d
.L66:
	.loc 3 71 7 discriminator 7
	testq	%r12, %r12
	js	.L65
	.loc 3 71 7 discriminator 6
	movq	%r14, %rdi
	call	_ZN10ComparisonC1Ev@PLT
	addq	$24, %r14
	subq	$1, %r12
	jmp	.L66
.L65:
	.loc 3 71 7 discriminator 5
	addq	$480, %r13
	subq	$1, %rbx
	jmp	.L67
.L68:
.LBE3:
	.loc 3 71 7
	nop
	addq	$16, %rsp
	popq	%rbx
	popq	%r12
	popq	%r13
	popq	%r14
	popq	%rbp
	.cfi_def_cfa 7, 8
	ret
	.cfi_endproc
.LFE1603:
	.size	_ZN3CNFC2Ev, .-_ZN3CNFC2Ev
	.weak	_ZN3CNFC1Ev
	.set	_ZN3CNFC1Ev,_ZN3CNFC2Ev
	.section	.rodata
.LC26:
	.string	" Filter with CNF for : "
.LC27:
	.string	" selected "
	.text
	.globl	_Z5test3v
	.type	_Z5test3v, @function
_Z5test3v:
.LFB1601:
	.loc 2 62 14 is_stmt 1
	.cfi_startproc
	.cfi_personality 0x9b,DW.ref.__gxx_personality_v0
	.cfi_lsda 0x1b,.LLSDA1601
	endbr64
	pushq	%rbp
	.cfi_def_cfa_offset 16
	.cfi_offset 6, -16
	movq	%rsp, %rbp
	.cfi_def_cfa_register 6
	pushq	%rbx
	subq	$4096, %rsp
	orq	$0, (%rsp)
	subq	$4096, %rsp
	orq	$0, (%rsp)
	subq	$1608, %rsp
	.cfi_offset 3, -24
	.loc 2 62 14
	movq	%fs:40, %rax
	movq	%rax, -24(%rbp)
	xorl	%eax, %eax
	.loc 2 64 57
	leaq	.LC26(%rip), %rsi
	leaq	_ZSt4cout(%rip), %rdi
.LEHB28:
	call	_ZStlsISt11char_traitsIcEERSt13basic_ostreamIcT_ES5_PKc@PLT
	movq	%rax, %rbx
	movq	rel(%rip), %rax
	movq	%rax, %rdi
	call	_ZN8relation4nameEv
	movq	%rax, %rsi
	movq	%rbx, %rdi
	call	_ZStlsISt11char_traitsIcEERSt13basic_ostreamIcT_ES5_PKc@PLT
	leaq	.LC23(%rip), %rsi
	movq	%rax, %rdi
	call	_ZStlsISt11char_traitsIcEERSt13basic_ostreamIcT_ES5_PKc@PLT
	.loc 2 66 9
	leaq	-9712(%rbp), %rax
	movq	%rax, %rdi
	call	_ZN3CNFC1Ev
	.loc 2 67 12
	leaq	-9792(%rbp), %rax
	movq	%rax, %rdi
	call	_ZN6RecordC1Ev@PLT
.LEHE28:
	.loc 2 68 17
	movq	rel(%rip), %rax
	leaq	-9792(%rbp), %rdx
	leaq	-9712(%rbp), %rcx
	movq	%rcx, %rsi
	movq	%rax, %rdi
.LEHB29:
	call	_ZN8relation7get_cnfER3CNFR6Record
	.loc 2 70 12
	leaq	-9776(%rbp), %rax
	movq	%rax, %rdi
	call	_ZN6DBFileC1Ev@PLT
.LEHE29:
	.loc 2 71 16
	movq	rel(%rip), %rax
	movq	%rax, %rdi
	call	_ZN8relation4pathEv
	movq	%rax, %rdx
	leaq	-9776(%rbp), %rax
	movq	%rdx, %rsi
	movq	%rax, %rdi
.LEHB30:
	call	_ZN6DBFile4OpenEPKc@PLT
	.loc 2 72 21
	leaq	-9776(%rbp), %rax
	movq	%rax, %rdi
	call	_ZN6DBFile9MoveFirstEv@PLT
	.loc 2 74 12
	leaq	-9784(%rbp), %rax
	movq	%rax, %rdi
	call	_ZN6RecordC1Ev@PLT
.LEHE30:
	.loc 2 76 9
	movl	$0, -9796(%rbp)
.L72:
	.loc 2 77 26
	leaq	-9792(%rbp), %rcx
	leaq	-9712(%rbp), %rdx
	leaq	-9784(%rbp), %rsi
	leaq	-9776(%rbp), %rax
	movq	%rax, %rdi
.LEHB31:
	call	_ZN6DBFile7GetNextER6RecordR3CNFS1_@PLT
	.loc 2 77 47
	cmpl	$1, %eax
	sete	%al
	testb	%al, %al
	je	.L70
	.loc 2 78 17
	addl	$1, -9796(%rbp)
	.loc 2 79 19
	movq	rel(%rip), %rax
	movq	%rax, %rdi
	call	_ZN8relation6schemaEv
	movq	%rax, %rdx
	leaq	-9784(%rbp), %rax
	movq	%rdx, %rsi
	movq	%rax, %rdi
	call	_ZN6Record5PrintEP6Schema@PLT
	.loc 2 80 21
	movl	-9796(%rbp), %edx
	movslq	%edx, %rax
	imulq	$1759218605, %rax, %rax
	shrq	$32, %rax
	movl	%eax, %ecx
	sarl	$12, %ecx
	movl	%edx, %eax
	sarl	$31, %eax
	subl	%eax, %ecx
	movl	%ecx, %eax
	imull	$10000, %eax, %eax
	subl	%eax, %edx
	movl	%edx, %eax
	.loc 2 80 9
	testl	%eax, %eax
	jne	.L72
	.loc 2 81 32
	movl	-9796(%rbp), %eax
	movl	%eax, %esi
	leaq	_ZSt4cout(%rip), %rdi
	call	_ZNSolsEi@PLT
	leaq	.LC23(%rip), %rsi
	movq	%rax, %rdi
	call	_ZStlsISt11char_traitsIcEERSt13basic_ostreamIcT_ES5_PKc@PLT
	.loc 2 77 5
	jmp	.L72
.L70:
	.loc 2 84 13
	leaq	.LC27(%rip), %rsi
	leaq	_ZSt4cout(%rip), %rdi
	call	_ZStlsISt11char_traitsIcEERSt13basic_ostreamIcT_ES5_PKc@PLT
	movq	%rax, %rdx
	.loc 2 84 40
	movl	-9796(%rbp), %eax
	movl	%eax, %esi
	movq	%rdx, %rdi
	call	_ZNSolsEi@PLT
	.loc 2 84 40 is_stmt 0 discriminator 1
	leaq	.LC25(%rip), %rsi
	movq	%rax, %rdi
	call	_ZStlsISt11char_traitsIcEERSt13basic_ostreamIcT_ES5_PKc@PLT
	.loc 2 85 17 is_stmt 1
	leaq	-9776(%rbp), %rax
	movq	%rax, %rdi
	call	_ZN6DBFile5CloseEv@PLT
.LEHE31:
	.loc 2 74 12
	leaq	-9784(%rbp), %rax
	movq	%rax, %rdi
	call	_ZN6RecordD1Ev@PLT
	.loc 2 70 12
	leaq	-9776(%rbp), %rax
	movq	%rax, %rdi
	call	_ZN6DBFileD1Ev@PLT
	.loc 2 67 12
	leaq	-9792(%rbp), %rax
	movq	%rax, %rdi
	call	_ZN6RecordD1Ev@PLT
	.loc 2 86 1
	nop
	movq	-24(%rbp), %rax
	xorq	%fs:40, %rax
	je	.L76
	jmp	.L80
.L79:
	endbr64
	movq	%rax, %rbx
	.loc 2 74 12
	leaq	-9784(%rbp), %rax
	movq	%rax, %rdi
	call	_ZN6RecordD1Ev@PLT
	jmp	.L74
.L78:
	endbr64
	movq	%rax, %rbx
.L74:
	.loc 2 70 12
	leaq	-9776(%rbp), %rax
	movq	%rax, %rdi
	call	_ZN6DBFileD1Ev@PLT
	jmp	.L75
.L77:
	endbr64
	movq	%rax, %rbx
.L75:
	.loc 2 67 12
	leaq	-9792(%rbp), %rax
	movq	%rax, %rdi
	call	_ZN6RecordD1Ev@PLT
	movq	%rbx, %rax
	movq	%rax, %rdi
.LEHB32:
	call	_Unwind_Resume@PLT
.LEHE32:
.L80:
	.loc 2 86 1
	call	__stack_chk_fail@PLT
.L76:
	addq	$9800, %rsp
	popq	%rbx
	popq	%rbp
	.cfi_def_cfa 7, 8
	ret
	.cfi_endproc
.LFE1601:
	.section	.gcc_except_table
.LLSDA1601:
	.byte	0xff
	.byte	0xff
	.byte	0x1
	.uleb128 .LLSDACSE1601-.LLSDACSB1601
.LLSDACSB1601:
	.uleb128 .LEHB28-.LFB1601
	.uleb128 .LEHE28-.LEHB28
	.uleb128 0
	.uleb128 0
	.uleb128 .LEHB29-.LFB1601
	.uleb128 .LEHE29-.LEHB29
	.uleb128 .L77-.LFB1601
	.uleb128 0
	.uleb128 .LEHB30-.LFB1601
	.uleb128 .LEHE30-.LEHB30
	.uleb128 .L78-.LFB1601
	.uleb128 0
	.uleb128 .LEHB31-.LFB1601
	.uleb128 .LEHE31-.LEHB31
	.uleb128 .L79-.LFB1601
	.uleb128 0
	.uleb128 .LEHB32-.LFB1601
	.uleb128 .LEHE32-.LEHB32
	.uleb128 0
	.uleb128 0
.LLSDACSE1601:
	.text
	.size	_Z5test3v, .-_Z5test3v
	.section	.rodata
.LC28:
	.string	" select test: \n"
.LC29:
	.string	" \t 1. load file \n"
.LC30:
	.string	" \t 2. scan \n"
.LC31:
	.string	" \t 3. scan & filter \n \t "
.LC32:
	.string	"\n select table: \n"
.LC33:
	.string	"\t 1. nation \n"
.LC34:
	.string	"\t 2. region \n"
.LC35:
	.string	"\t 3. customer \n"
.LC36:
	.string	"\t 4. part \n"
.LC37:
	.string	"\t 5. partsupp \n"
.LC38:
	.string	"\t 6. orders \n"
.LC39:
	.string	"\t 7. lineitem \n \t "
	.text
	.globl	main
	.type	main, @function
main:
.LFB1605:
	.loc 2 88 12
	.cfi_startproc
	endbr64
	pushq	%rbp
	.cfi_def_cfa_offset 16
	.cfi_offset 6, -16
	movq	%rsp, %rbp
	.cfi_def_cfa_register 6
	subq	$112, %rsp
	.loc 2 88 12
	movq	%fs:40, %rax
	movq	%rax, -8(%rbp)
	xorl	%eax, %eax
	.loc 2 90 10
	movq	tpch_dir(%rip), %rdx
	movq	dbfile_dir(%rip), %rcx
	movq	catalog_path(%rip), %rax
	movq	%rcx, %rsi
	movq	%rax, %rdi
	call	_Z5setupPKcS0_S0_
	.loc 2 93 49
	movq	n(%rip), %rax
	movq	%rax, -64(%rbp)
	movq	r(%rip), %rax
	movq	%rax, -56(%rbp)
	movq	c(%rip), %rax
	movq	%rax, -48(%rbp)
	movq	p(%rip), %rax
	movq	%rax, -40(%rbp)
	movq	ps(%rip), %rax
	movq	%rax, -32(%rbp)
	movq	o(%rip), %rax
	movq	%rax, -24(%rbp)
	movq	li(%rip), %rax
	movq	%rax, -16(%rbp)
	.loc 2 94 12
	leaq	_Z5test1v(%rip), %rax
	movq	%rax, -96(%rbp)
	leaq	_Z5test2v(%rip), %rax
	movq	%rax, -88(%rbp)
	leaq	_Z5test3v(%rip), %rax
	movq	%rax, -80(%rbp)
	.loc 2 96 9
	movl	$0, -112(%rbp)
.L84:
	.loc 2 97 18
	movl	-112(%rbp), %eax
	.loc 2 97 22
	testl	%eax, %eax
	jle	.L82
	.loc 2 97 31 discriminator 1
	movl	-112(%rbp), %eax
	.loc 2 97 22 discriminator 1
	cmpl	$3, %eax
	jle	.L83
.L82:
	.loc 2 98 17
	leaq	.LC28(%rip), %rsi
	leaq	_ZSt4cout(%rip), %rdi
	call	_ZStlsISt11char_traitsIcEERSt13basic_ostreamIcT_ES5_PKc@PLT
	.loc 2 99 17
	leaq	.LC29(%rip), %rsi
	leaq	_ZSt4cout(%rip), %rdi
	call	_ZStlsISt11char_traitsIcEERSt13basic_ostreamIcT_ES5_PKc@PLT
	.loc 2 100 17
	leaq	.LC30(%rip), %rsi
	leaq	_ZSt4cout(%rip), %rdi
	call	_ZStlsISt11char_traitsIcEERSt13basic_ostreamIcT_ES5_PKc@PLT
	.loc 2 101 17
	leaq	.LC31(%rip), %rsi
	leaq	_ZSt4cout(%rip), %rdi
	call	_ZStlsISt11char_traitsIcEERSt13basic_ostreamIcT_ES5_PKc@PLT
	.loc 2 102 16
	leaq	-112(%rbp), %rax
	movq	%rax, %rsi
	leaq	_ZSt3cin(%rip), %rdi
	call	_ZNSirsERi@PLT
	.loc 2 97 5
	jmp	.L84
.L83:
	.loc 2 105 9
	movl	$0, -108(%rbp)
.L87:
	.loc 2 106 18
	movl	-108(%rbp), %eax
	.loc 2 106 22
	testl	%eax, %eax
	jle	.L85
	.loc 2 106 31 discriminator 1
	movl	-108(%rbp), %eax
	.loc 2 106 22 discriminator 1
	cmpl	$7, %eax
	jle	.L86
.L85:
	.loc 2 107 17
	leaq	.LC32(%rip), %rsi
	leaq	_ZSt4cout(%rip), %rdi
	call	_ZStlsISt11char_traitsIcEERSt13basic_ostreamIcT_ES5_PKc@PLT
	.loc 2 108 17
	leaq	.LC33(%rip), %rsi
	leaq	_ZSt4cout(%rip), %rdi
	call	_ZStlsISt11char_traitsIcEERSt13basic_ostreamIcT_ES5_PKc@PLT
	.loc 2 109 17
	leaq	.LC34(%rip), %rsi
	leaq	_ZSt4cout(%rip), %rdi
	call	_ZStlsISt11char_traitsIcEERSt13basic_ostreamIcT_ES5_PKc@PLT
	.loc 2 110 17
	leaq	.LC35(%rip), %rsi
	leaq	_ZSt4cout(%rip), %rdi
	call	_ZStlsISt11char_traitsIcEERSt13basic_ostreamIcT_ES5_PKc@PLT
	.loc 2 111 17
	leaq	.LC36(%rip), %rsi
	leaq	_ZSt4cout(%rip), %rdi
	call	_ZStlsISt11char_traitsIcEERSt13basic_ostreamIcT_ES5_PKc@PLT
	.loc 2 112 17
	leaq	.LC37(%rip), %rsi
	leaq	_ZSt4cout(%rip), %rdi
	call	_ZStlsISt11char_traitsIcEERSt13basic_ostreamIcT_ES5_PKc@PLT
	.loc 2 113 17
	leaq	.LC38(%rip), %rsi
	leaq	_ZSt4cout(%rip), %rdi
	call	_ZStlsISt11char_traitsIcEERSt13basic_ostreamIcT_ES5_PKc@PLT
	.loc 2 114 17
	leaq	.LC39(%rip), %rsi
	leaq	_ZSt4cout(%rip), %rdi
	call	_ZStlsISt11char_traitsIcEERSt13basic_ostreamIcT_ES5_PKc@PLT
	.loc 2 115 16
	leaq	-108(%rbp), %rax
	movq	%rax, %rsi
	leaq	_ZSt3cin(%rip), %rdi
	call	_ZNSirsERi@PLT
	.loc 2 106 5
	jmp	.L87
.L86:
	.loc 2 118 25
	movl	-108(%rbp), %eax
	subl	$1, %eax
	.loc 2 118 28
	cltq
	movq	-64(%rbp,%rax,8), %rax
	.loc 2 118 9
	movq	%rax, rel(%rip)
	.loc 2 119 27
	movl	-112(%rbp), %eax
	subl	$1, %eax
	.loc 2 119 10
	cltq
	movq	-96(%rbp,%rax,8), %rax
	movq	%rax, -104(%rbp)
	.loc 2 121 9
	movq	-104(%rbp), %rax
	call	*%rax
.LVL0:
	.loc 2 123 12
	call	_Z7cleanupv
	.loc 2 124 1
	movl	$0, %eax
	movq	-8(%rbp), %rcx
	xorq	%fs:40, %rcx
	je	.L89
	call	__stack_chk_fail@PLT
.L89:
	leave
	.cfi_def_cfa 7, 8
	ret
	.cfi_endproc
.LFE1605:
	.size	main, .-main
	.type	_Z41__static_initialization_and_destruction_0ii, @function
_Z41__static_initialization_and_destruction_0ii:
.LFB1990:
	.loc 2 124 1
	.cfi_startproc
	endbr64
	pushq	%rbp
	.cfi_def_cfa_offset 16
	.cfi_offset 6, -16
	movq	%rsp, %rbp
	.cfi_def_cfa_register 6
	subq	$16, %rsp
	movl	%edi, -4(%rbp)
	movl	%esi, -8(%rbp)
	.loc 2 124 1
	cmpl	$1, -4(%rbp)
	jne	.L92
	.loc 2 124 1 is_stmt 0 discriminator 1
	cmpl	$65535, -8(%rbp)
	jne	.L92
	.file 4 "/usr/include/c++/9/iostream"
	.loc 4 74 25 is_stmt 1
	leaq	_ZStL8__ioinit(%rip), %rdi
	call	_ZNSt8ios_base4InitC1Ev@PLT
	leaq	__dso_handle(%rip), %rdx
	leaq	_ZStL8__ioinit(%rip), %rsi
	movq	_ZNSt8ios_base4InitD1Ev@GOTPCREL(%rip), %rax
	movq	%rax, %rdi
	call	__cxa_atexit@PLT
.L92:
	.loc 2 124 1
	nop
	leave
	.cfi_def_cfa 7, 8
	ret
	.cfi_endproc
.LFE1990:
	.size	_Z41__static_initialization_and_destruction_0ii, .-_Z41__static_initialization_and_destruction_0ii
	.type	_GLOBAL__sub_I_supplier, @function
_GLOBAL__sub_I_supplier:
.LFB1991:
	.loc 2 124 1
	.cfi_startproc
	endbr64
	pushq	%rbp
	.cfi_def_cfa_offset 16
	.cfi_offset 6, -16
	movq	%rsp, %rbp
	.cfi_def_cfa_register 6
	.loc 2 124 1
	movl	$65535, %esi
	movl	$1, %edi
	call	_Z41__static_initialization_and_destruction_0ii
	popq	%rbp
	.cfi_def_cfa 7, 8
	ret
	.cfi_endproc
.LFE1991:
	.size	_GLOBAL__sub_I_supplier, .-_GLOBAL__sub_I_supplier
	.section	.init_array,"aw"
	.align 8
	.quad	_GLOBAL__sub_I_supplier
	.text
.Letext0:
	.file 5 "/usr/include/c++/9/bits/basic_string.h"
	.file 6 "/usr/include/c++/9/bits/basic_string.tcc"
	.file 7 "/usr/include/c++/9/cwchar"
	.file 8 "/usr/include/c++/9/new"
	.file 9 "/usr/include/c++/9/bits/exception_ptr.h"
	.file 10 "/usr/include/x86_64-linux-gnu/c++/9/bits/c++config.h"
	.file 11 "/usr/include/c++/9/type_traits"
	.file 12 "/usr/include/c++/9/bits/cpp_type_traits.h"
	.file 13 "/usr/include/c++/9/bits/stl_pair.h"
	.file 14 "/usr/include/c++/9/bits/stl_iterator_base_types.h"
	.file 15 "/usr/include/c++/9/debug/debug.h"
	.file 16 "/usr/include/c++/9/bits/char_traits.h"
	.file 17 "/usr/include/c++/9/cstdint"
	.file 18 "/usr/include/c++/9/clocale"
	.file 19 "/usr/include/c++/9/bits/allocator.h"
	.file 20 "/usr/include/c++/9/cstdlib"
	.file 21 "/usr/include/c++/9/cstdio"
	.file 22 "/usr/include/c++/9/bits/alloc_traits.h"
	.file 23 "/usr/include/c++/9/initializer_list"
	.file 24 "/usr/include/c++/9/bits/stringfwd.h"
	.file 25 "/usr/include/c++/9/system_error"
	.file 26 "/usr/include/c++/9/bits/ios_base.h"
	.file 27 "/usr/include/c++/9/cwctype"
	.file 28 "/usr/include/c++/9/iosfwd"
	.file 29 "/usr/include/c++/9/bits/stl_iterator_base_funcs.h"
	.file 30 "/usr/include/c++/9/bits/predefined_ops.h"
	.file 31 "/usr/include/c++/9/ext/new_allocator.h"
	.file 32 "/usr/include/c++/9/ext/numeric_traits.h"
	.file 33 "/usr/include/c++/9/ext/alloc_traits.h"
	.file 34 "/usr/include/c++/9/bits/stl_iterator.h"
	.file 35 "/usr/include/c++/9/ext/type_traits.h"
	.file 36 "/usr/lib/gcc/x86_64-linux-gnu/9/include/stddef.h"
	.file 37 "<built-in>"
	.file 38 "/usr/include/x86_64-linux-gnu/bits/types/wint_t.h"
	.file 39 "/usr/include/x86_64-linux-gnu/bits/types/__mbstate_t.h"
	.file 40 "/usr/include/x86_64-linux-gnu/bits/types/mbstate_t.h"
	.file 41 "/usr/include/x86_64-linux-gnu/bits/types/__FILE.h"
	.file 42 "/usr/include/x86_64-linux-gnu/bits/types/struct_FILE.h"
	.file 43 "/usr/include/x86_64-linux-gnu/bits/types/FILE.h"
	.file 44 "/usr/include/wchar.h"
	.file 45 "/usr/include/x86_64-linux-gnu/bits/types/struct_tm.h"
	.file 46 "/usr/include/x86_64-linux-gnu/bits/types.h"
	.file 47 "/usr/include/x86_64-linux-gnu/bits/stdint-intn.h"
	.file 48 "/usr/include/x86_64-linux-gnu/bits/stdint-uintn.h"
	.file 49 "/usr/include/stdint.h"
	.file 50 "/usr/include/locale.h"
	.file 51 "/usr/include/time.h"
	.file 52 "/usr/include/x86_64-linux-gnu/c++/9/bits/atomic_word.h"
	.file 53 "/usr/include/stdlib.h"
	.file 54 "/usr/include/x86_64-linux-gnu/sys/types.h"
	.file 55 "/usr/include/x86_64-linux-gnu/bits/types/__fpos_t.h"
	.file 56 "/usr/include/stdio.h"
	.file 57 "/usr/include/x86_64-linux-gnu/bits/sys_errlist.h"
	.file 58 "/usr/include/errno.h"
	.file 59 "/usr/include/x86_64-linux-gnu/bits/wctype-wchar.h"
	.file 60 "/usr/include/wctype.h"
	.file 61 "/home/kaushik/Desktop/DBI/database_implementation/Defs.h"
	.file 62 "/home/kaushik/Desktop/DBI/database_implementation/ParseTree.h"
	.file 63 "/home/kaushik/Desktop/DBI/database_implementation/ComparisonEngine.h"
	.file 64 "/home/kaushik/Desktop/DBI/database_implementation/Record.h"
	.file 65 "/home/kaushik/Desktop/DBI/database_implementation/Schema.h"
	.file 66 "/home/kaushik/Desktop/DBI/database_implementation/File.h"
	.file 67 "/home/kaushik/Desktop/DBI/database_implementation/DBFile.h"
	.section	.data.rel.local.DW.ref.__gxx_personality_v0,"awG",@progbits,DW.ref.__gxx_personality_v0,comdat
	.align 8
	.type	DW.ref.__gxx_personality_v0, @object
	.size	DW.ref.__gxx_personality_v0, 8
DW.ref.__gxx_personality_v0:
	.quad	__gxx_personality_v0
	.hidden	__dso_handle
	.ident	"GCC: (Ubuntu 9.2.1-9ubuntu2) 9.2.1 20191008"
	.section	.note.GNU-stack,"",@progbits
	.section	.note.gnu.property,"a"
	.align 8
	.long	 1f - 0f
	.long	 4f - 1f
	.long	 5
0:
	.string	 "GNU"
1:
	.align 8
	.long	 0xc0000002
	.long	 3f - 2f
2:
	.long	 0x3
3:
	.align 8
4:
